#include <math.h>
#include <stdio.h>
#include <stdlib.h>
#include <string.h>

void main()
{
	int i=0;
	char n[5];
	while((n[i]=getchar())!='\n')
		i=i+1;
	i=i-1;
	while(i>=0)
	{
		printf("%c",n[i]);
		i=i-1;
}
printf("\n");
}