; ModuleID = '56/721.c'
source_filename = "56/721.c"
target datalayout = "e-m:e-p270:32:32-p271:32:32-p272:64:64-i64:64-f80:128-n8:16:32:64-S128"
target triple = "x86_64-pc-linux-gnu"

@.str = private unnamed_addr constant [3 x i8] c"%c\00", align 1
@.str.1 = private unnamed_addr constant [2 x i8] c"\0A\00", align 1

; Function Attrs: noinline nounwind uwtable
define dso_local void @main() #0 {
  %1 = alloca i32, align 4
  %2 = alloca [5 x i8], align 1
  store i32 0, i32* %1, align 4
  br label %3

3:                                                ; preds = %11, %0
  %4 = call i32 @getchar()
  %5 = trunc i32 %4 to i8
  %6 = load i32, i32* %1, align 4
  %7 = sext i32 %6 to i64
  %8 = getelementptr inbounds [5 x i8], [5 x i8]* %2, i64 0, i64 %7
  store i8 %5, i8* %8, align 1
  %9 = sext i8 %5 to i32
  %10 = icmp ne i32 %9, 10
  br i1 %10, label %11, label %14

11:                                               ; preds = %3
  %12 = load i32, i32* %1, align 4
  %13 = add nsw i32 %12, 1
  store i32 %13, i32* %1, align 4
  br label %3

14:                                               ; preds = %3
  %15 = load i32, i32* %1, align 4
  %16 = sub nsw i32 %15, 1
  store i32 %16, i32* %1, align 4
  br label %17

17:                                               ; preds = %20, %14
  %18 = load i32, i32* %1, align 4
  %19 = icmp sge i32 %18, 0
  br i1 %19, label %20, label %29

20:                                               ; preds = %17
  %21 = load i32, i32* %1, align 4
  %22 = sext i32 %21 to i64
  %23 = getelementptr inbounds [5 x i8], [5 x i8]* %2, i64 0, i64 %22
  %24 = load i8, i8* %23, align 1
  %25 = sext i8 %24 to i32
  %26 = call i32 (i8*, ...) @printf(i8* getelementptr inbounds ([3 x i8], [3 x i8]* @.str, i64 0, i64 0), i32 %25)
  %27 = load i32, i32* %1, align 4
  %28 = sub nsw i32 %27, 1
  store i32 %28, i32* %1, align 4
  br label %17

29:                                               ; preds = %17
  %30 = call i32 (i8*, ...) @printf(i8* getelementptr inbounds ([2 x i8], [2 x i8]* @.str.1, i64 0, i64 0))
  ret void
}

declare dso_local i32 @getchar() #1

declare dso_local i32 @printf(i8*, ...) #1


!llvm.module.flags = !{!0}
!llvm.ident = !{!1}

!0 = !{i32 1, !"wchar_size", i32 4}
!1 = !{!"clang version 10.0.0-4ubuntu1 "}
