; ModuleID = 'source-C-CXX/55/721.c'
source_filename = "source-C-CXX/55/721.c"
target datalayout = "e-m:e-p270:32:32-p271:32:32-p272:64:64-i64:64-f80:128-n8:16:32:64-S128"
target triple = "x86_64-pc-linux-gnu"

%struct._IO_FILE = type { i32, i8*, i8*, i8*, i8*, i8*, i8*, i8*, i8*, i8*, i8*, i8*, %struct._IO_marker*, %struct._IO_FILE*, i32, i32, i64, i16, i8, [1 x i8], i8*, i64, %struct._IO_codecvt*, %struct._IO_wide_data*, %struct._IO_FILE*, i8*, i64, i32, [20 x i8] }
%struct._IO_marker = type opaque
%struct._IO_codecvt = type opaque
%struct._IO_wide_data = type opaque

@stdin = external local_unnamed_addr global %struct._IO_FILE*, align 8

; Function Attrs: nofree nounwind sspstrong uwtable
define dso_local void @main() local_unnamed_addr #0 {
  %1 = alloca [5 x i8], align 1
  %2 = getelementptr inbounds [5 x i8], [5 x i8]* %1, i64 0, i64 0
  call void @llvm.lifetime.start.p0i8(i64 5, i8* nonnull %2) #4
  br label %3

3:                                                ; preds = %3, %0
  %4 = phi i64 [ %11, %3 ], [ 0, %0 ]
  %5 = load %struct._IO_FILE*, %struct._IO_FILE** @stdin, align 8, !tbaa !5
  %6 = tail call i32 @getc(%struct._IO_FILE* %5) #4
  %7 = trunc i32 %6 to i8
  %8 = getelementptr inbounds [5 x i8], [5 x i8]* %1, i64 0, i64 %4
  store i8 %7, i8* %8, align 1, !tbaa !9
  %9 = and i32 %6, 255
  %10 = icmp eq i32 %9, 10
  %11 = add nuw i64 %4, 1
  br i1 %10, label %12, label %3, !llvm.loop !10

12:                                               ; preds = %3
  %13 = trunc i64 %4 to i32
  %14 = icmp eq i32 %13, 0
  br i1 %14, label %29, label %15

15:                                               ; preds = %12
  %16 = and i64 %4, 4294967295
  br label %17

17:                                               ; preds = %15, %17
  %18 = phi i64 [ %16, %15 ], [ %28, %17 ]
  %19 = phi i32 [ %13, %15 ], [ %20, %17 ]
  %20 = add nsw i32 %19, -1
  %21 = zext i32 %20 to i64
  %22 = getelementptr inbounds [5 x i8], [5 x i8]* %1, i64 0, i64 %21
  %23 = load i8, i8* %22, align 1, !tbaa !9
  %24 = sext i8 %23 to i32
  %25 = tail call i32 @putchar(i32 %24)
  %26 = trunc i64 %18 to i32
  %27 = icmp sgt i32 %26, 1
  %28 = add nsw i64 %18, -1
  br i1 %27, label %17, label %29, !llvm.loop !12

29:                                               ; preds = %17, %12
  %30 = tail call i32 @putchar(i32 10)
  call void @llvm.lifetime.end.p0i8(i64 5, i8* nonnull %2) #4
  ret void
}

; Function Attrs: argmemonly mustprogress nofree nosync nounwind willreturn
declare void @llvm.lifetime.start.p0i8(i64 immarg, i8* nocapture) #1

; Function Attrs: argmemonly mustprogress nofree nosync nounwind willreturn
declare void @llvm.lifetime.end.p0i8(i64 immarg, i8* nocapture) #1

; Function Attrs: nofree nounwind
declare noundef i32 @getc(%struct._IO_FILE* nocapture noundef) local_unnamed_addr #2

; Function Attrs: nofree nounwind
declare noundef i32 @putchar(i32 noundef) local_unnamed_addr #3


!llvm.module.flags = !{!0, !1, !2, !3}
!llvm.ident = !{!4}

!0 = !{i32 1, !"wchar_size", i32 4}
!1 = !{i32 7, !"PIC Level", i32 2}
!2 = !{i32 7, !"PIE Level", i32 2}
!3 = !{i32 7, !"uwtable", i32 1}
!4 = !{!"clang version 13.0.0"}
!5 = !{!6, !6, i64 0}
!6 = !{!"any pointer", !7, i64 0}
!7 = !{!"omnipotent char", !8, i64 0}
!8 = !{!"Simple C/C++ TBAA"}
!9 = !{!7, !7, i64 0}
!10 = distinct !{!10, !11}
!11 = !{!"llvm.loop.mustprogress"}
!12 = distinct !{!12, !11}
